target datalayout = "e-m:e-p270:32:32-p271:32:32-p272:64:64-i64:64-i128:128-f80:128-n8:16:32:64-S128"
target triple = "x86_64-pc-linux-gnu"

%struct._phpdbg_param = type { i32, i64, i64, %struct.anon, %struct.anon.0, ptr, i64, ptr, ptr }
%struct.anon = type { ptr, i64 }
%struct.anon.0 = type { ptr, ptr }

; Function Attrs: nounwind uwtable
define void @phpdbg_clear_param(ptr noundef %0) #0 {
  %2 = alloca ptr, align 8
  store ptr %0, ptr %2, align 8
  %3 = load ptr, ptr %2, align 8
  %4 = icmp ne ptr %3, null
  br i1 %4, label %5, label %29

5:                                                ; preds = %1
  %6 = load ptr, ptr %2, align 8
  %7 = getelementptr inbounds %struct._phpdbg_param, ptr %6, i32 0, i32 0
  %8 = load i32, ptr %7, align 8
  switch i32 %8, label %27 [
    i32 2, label %9
    i32 4, label %14
    i32 5, label %23
  ]

9:                                                ; preds = %5
  %10 = load ptr, ptr %2, align 8
  %11 = getelementptr inbounds %struct._phpdbg_param, ptr %10, i32 0, i32 3
  %12 = getelementptr inbounds %struct.anon, ptr %11, i32 0, i32 0
  %13 = load ptr, ptr %12, align 8
  call void @_efree(ptr noundef %13)
  br label %28

14:                                               ; preds = %5
  %15 = load ptr, ptr %2, align 8
  %16 = getelementptr inbounds %struct._phpdbg_param, ptr %15, i32 0, i32 4
  %17 = getelementptr inbounds %struct.anon.0, ptr %16, i32 0, i32 0
  %18 = load ptr, ptr %17, align 8
  call void @_efree(ptr noundef %18)
  %19 = load ptr, ptr %2, align 8
  %20 = getelementptr inbounds %struct._phpdbg_param, ptr %19, i32 0, i32 4
  %21 = getelementptr inbounds %struct.anon.0, ptr %20, i32 0, i32 1
  %22 = load ptr, ptr %21, align 8
  call void @_efree(ptr noundef %22)
  br label %28

23:                                               ; preds = %5
  %24 = load ptr, ptr %2, align 8
  %25 = getelementptr inbounds %struct._phpdbg_param, ptr %24, i32 0, i32 5
  %26 = load ptr, ptr %25, align 8
  call void @_efree(ptr noundef %26)
  br label %28

27:                                               ; preds = %5
  br label %28

28:                                               ; preds = %27, %23, %14, %9
  br label %29

29:                                               ; preds = %28, %1
  ret void
}