; Function Attrs: nounwind uwtable
define void @phpdbg_clear_param(ptr noundef readonly %0) local_unnamed_addr #1 {
  %.not = icmp eq ptr %0, null
  br i1 %.not, label %10, label %2

2:                                                ; preds = %1
  %3 = load i32, ptr %0, align 8
  switch i32 %3, label %10 [
    i32 2, label %.sink.split
    i32 4, label %4
    i32 5, label %7
  ]

4:                                                ; preds = %2
  %5 = getelementptr inbounds i8, ptr %0, i64 40
  %6 = load ptr, ptr %5, align 8
  tail call void @_efree(ptr noundef %6) #22
  br label %.sink.split

7:                                                ; preds = %2
  br label %.sink.split

.sink.split:                                      ; preds = %2, %7, %4
  %.sink = phi i64 [ 48, %4 ], [ 56, %7 ], [ 24, %2 ]
  %8 = getelementptr inbounds i8, ptr %0, i64 %.sink
  %9 = load ptr, ptr %8, align 8
  tail call void @_efree(ptr noundef %9) #22
  br label %10

10:                                               ; preds = %.sink.split, %2, %1
  ret void
}